target datalayout = "e-m:e-p270:32:32-p271:32:32-p272:64:64-i64:64-i128:128-f80:128-n8:16:32:64-S128"
target triple = "x86_64-pc-linux-gnu"

@_ZN2os5Linux19_pthread_setname_npE = hidden global ptr null, align 8
@.str.46 = private unnamed_addr constant [3 x i8] c"%s\00", align 1

; Function Attrs: mustprogress nounwind uwtable
define hidden void @_ZN2os22set_native_thread_nameEPKc(ptr noundef %0) #1 align 2 {
  %2 = alloca ptr, align 8
  %3 = alloca [16 x i8], align 16
  %4 = alloca i32, align 4
  store ptr %0, ptr %2, align 8
  %5 = load ptr, ptr @_ZN2os5Linux19_pthread_setname_npE, align 8
  %6 = icmp ne ptr %5, null
  br i1 %6, label %7, label %16

7:                                                ; preds = %1
  %8 = getelementptr inbounds [16 x i8], ptr %3, i64 0, i64 0
  %9 = load ptr, ptr %2, align 8
  %10 = call noundef i32 (ptr, i64, ptr, ...) @_ZN2os8snprintfEPcmPKcz(ptr noundef %8, i64 noundef 16, ptr noundef @.str.46, ptr noundef %9)
  %11 = getelementptr inbounds [16 x i8], ptr %3, i64 0, i64 15
  store i8 0, ptr %11, align 1
  %12 = load ptr, ptr @_ZN2os5Linux19_pthread_setname_npE, align 8
  %13 = call i64 @pthread_self() #14
  %14 = getelementptr inbounds [16 x i8], ptr %3, i64 0, i64 0
  %15 = call noundef i32 %12(i64 noundef %13, ptr noundef %14)
  store i32 %15, ptr %4, align 4
  br label %16

16:                                               ; preds = %7, %1
  ret void
}