; Function Attrs: mustprogress nounwind uwtable
define hidden void @_ZN2os22set_native_thread_nameEPKc(ptr noundef %0) local_unnamed_addr #0 align 2 {
  %2 = alloca [16 x i8], align 16
  %3 = load ptr, ptr @_ZN2os5Linux19_pthread_setname_npE, align 8
  %.not = icmp eq ptr %3, null
  br i1 %.not, label %10, label %4

4:                                                ; preds = %1
  %5 = call noundef i32 (ptr, i64, ptr, ...) @_ZN2os8snprintfEPcmPKcz(ptr noundef nonnull %2, i64 noundef 16, ptr noundef nonnull @.str.46, ptr noundef %0) #26
  %6 = getelementptr inbounds i8, ptr %2, i64 15
  store i8 0, ptr %6, align 1
  %7 = load ptr, ptr @_ZN2os5Linux19_pthread_setname_npE, align 8
  %8 = tail call i64 @pthread_self() #28
  %9 = call noundef i32 %7(i64 noundef %8, ptr noundef nonnull %2) #26
  br label %10

10:                                               ; preds = %4, %1
  ret void
}